target datalayout = "e-m:e-p270:32:32-p271:32:32-p272:64:64-i64:64-i128:128-f80:128-n8:16:32:64-S128"
target triple = "x86_64-pc-linux-gnu"

%class.LabelStack = type { %class.QLabel, i32, %class.QList, i8, %class.QElapsedTimer, %class.QTimer }
%class.QLabel = type { %class.QFrame }
%class.QFrame = type { %class.QWidget }
%class.QWidget = type { %class.QObject, %class.QPaintDevice.base, ptr }
%class.QObject = type { ptr, %class.QScopedPointer }
%class.QScopedPointer = type { ptr }
%class.QPaintDevice.base = type <{ ptr, i16 }>
%class.QList = type { %struct.QArrayDataPointer }
%struct.QArrayDataPointer = type { ptr, ptr, i64 }
%class.QElapsedTimer = type { i64, i64 }
%class.QTimer = type { %class.QObject }
%"struct.LabelStack::_StackItem" = type <{ %class.QString, %class.QString, i32, [4 x i8] }>
%class.QString = type { %struct.QArrayDataPointer.0 }
%struct.QArrayDataPointer.0 = type { ptr, ptr, i64 }

; Function Attrs: mustprogress nounwind null_pointer_is_valid sspstrong uwtable
define linkonce_odr noundef ptr @_ZN17QArrayDataPointerIN10LabelStack10_StackItemEE4dataEv(ptr noundef align 8 dereferenceable_or_null(24) %0) #3 comdat align 2 {
  %2 = alloca ptr, align 8
  store ptr %0, ptr %2, align 8
  %3 = load ptr, ptr %2, align 8
  %4 = getelementptr inbounds nuw %struct.QArrayDataPointer, ptr %3, i32 0, i32 1
  %5 = load ptr, ptr %4, align 8
  ret ptr %5
}

; Function Attrs: mustprogress nounwind null_pointer_is_valid sspstrong uwtable
define linkonce_odr noundef ptr @_ZN17QArrayDataPointerIN10LabelStack10_StackItemEE5beginEv(ptr noundef align 8 dereferenceable_or_null(24) %0) #3 comdat align 2 {
  %2 = alloca ptr, align 8
  store ptr %0, ptr %2, align 8
  %3 = load ptr, ptr %2, align 8
  %4 = call noundef ptr @_ZN17QArrayDataPointerIN10LabelStack10_StackItemEE4dataEv(ptr noundef align 8 dereferenceable_or_null(24) %3) #19
  ret ptr %4
}

; Function Attrs: mustprogress nounwind null_pointer_is_valid sspstrong uwtable
define linkonce_odr noundef ptr @_ZN17QArrayDataPointerIN10LabelStack10_StackItemEEptEv(ptr noundef align 8 dereferenceable_or_null(24) %0) #3 comdat align 2 {
  %2 = alloca ptr, align 8
  store ptr %0, ptr %2, align 8
  %3 = load ptr, ptr %2, align 8
  ret ptr %3
}

; Function Attrs: mustprogress nounwind null_pointer_is_valid sspstrong uwtable
define linkonce_odr void @_ZN17QArrayDataPointerIDsEC2Ev(ptr noundef align 8 dereferenceable_or_null(24) %0) unnamed_addr #3 comdat align 2 {
  %2 = alloca ptr, align 8
  store ptr %0, ptr %2, align 8
  %3 = load ptr, ptr %2, align 8
  %4 = getelementptr inbounds nuw %struct.QArrayDataPointer.0, ptr %3, i32 0, i32 0
  store ptr null, ptr %4, align 8
  %5 = getelementptr inbounds nuw %struct.QArrayDataPointer.0, ptr %3, i32 0, i32 1
  store ptr null, ptr %5, align 8
  %6 = getelementptr inbounds nuw %struct.QArrayDataPointer.0, ptr %3, i32 0, i32 2
  store i64 0, ptr %6, align 8
  ret void
}

; Function Attrs: inlinehint mustprogress null_pointer_is_valid sspstrong uwtable
define linkonce_odr noundef align 8 dereferenceable(52) ptr @_ZN5QListIN10LabelStack10_StackItemEE12emplaceFrontIJRKS1_EEERS1_DpOT_(ptr noundef align 8 dereferenceable_or_null(24) %0, ptr noundef align 8 dereferenceable(52) %1) #4 comdat align 2 {
  %3 = alloca ptr, align 8
  %4 = alloca ptr, align 8
  store ptr %0, ptr %3, align 8
  store ptr %1, ptr %4, align 8
  %5 = load ptr, ptr %3, align 8
  %6 = getelementptr inbounds nuw %class.QList, ptr %5, i32 0, i32 0
  %7 = call noundef ptr @_ZN17QArrayDataPointerIN10LabelStack10_StackItemEEptEv(ptr noundef align 8 dereferenceable_or_null(24) %6) #19
  %8 = load ptr, ptr %4, align 8
  call void @_ZN9QtPrivate16QGenericArrayOpsIN10LabelStack10_StackItemEE7emplaceIJRKS2_EEEvxDpOT_(ptr noundef align 8 dereferenceable_or_null(24) %7, i64 noundef 0, ptr noundef align 8 dereferenceable(52) %8)
  %9 = getelementptr inbounds nuw %class.QList, ptr %5, i32 0, i32 0
  %10 = call noundef ptr @_ZN17QArrayDataPointerIN10LabelStack10_StackItemEE5beginEv(ptr noundef align 8 dereferenceable_or_null(24) %9) #19
  ret ptr %10
}

; Function Attrs: inlinehint mustprogress nounwind null_pointer_is_valid sspstrong uwtable
define linkonce_odr void @_ZN7QStringC2Ev(ptr noundef align 8 dereferenceable_or_null(24) %0) unnamed_addr #1 comdat align 2 {
  %2 = alloca ptr, align 8
  store ptr %0, ptr %2, align 8
  %3 = load ptr, ptr %2, align 8
  %4 = getelementptr inbounds nuw %class.QString, ptr %3, i32 0, i32 0
  call void @_ZN17QArrayDataPointerIDsEC2Ev(ptr noundef align 8 dereferenceable_or_null(24) %4) #19
  ret void
}

; Function Attrs: mustprogress null_pointer_is_valid sspstrong uwtable
define linkonce_odr void @_ZN5QListIN10LabelStack10_StackItemEE7prependERKS1_(ptr noundef align 8 dereferenceable_or_null(24) %0, ptr noundef align 8 dereferenceable(52) %1) #0 comdat align 2 {
  %3 = alloca ptr, align 8
  %4 = alloca ptr, align 8
  store ptr %0, ptr %3, align 8
  store ptr %1, ptr %4, align 8
  %5 = load ptr, ptr %3, align 8
  %6 = load ptr, ptr %4, align 8
  %7 = call noundef align 8 dereferenceable(52) ptr @_ZN5QListIN10LabelStack10_StackItemEE12emplaceFrontIJRKS1_EEERS1_DpOT_(ptr noundef align 8 dereferenceable_or_null(24) %5, ptr noundef align 8 dereferenceable(52) %6)
  ret void
}

; Function Attrs: inlinehint mustprogress nounwind null_pointer_is_valid sspstrong uwtable
define linkonce_odr void @_ZN10LabelStack10_StackItemC2Ev(ptr noundef align 8 dereferenceable_or_null(52) %0) unnamed_addr #1 comdat align 2 {
  %2 = alloca ptr, align 8
  store ptr %0, ptr %2, align 8
  %3 = load ptr, ptr %2, align 8
  %4 = getelementptr inbounds nuw %"struct.LabelStack::_StackItem", ptr %3, i32 0, i32 0
  call void @_ZN7QStringC2Ev(ptr noundef align 8 dereferenceable_or_null(24) %4) #19
  %5 = getelementptr inbounds nuw %"struct.LabelStack::_StackItem", ptr %3, i32 0, i32 1
  call void @_ZN7QStringC2Ev(ptr noundef align 8 dereferenceable_or_null(24) %5) #19
  ret void
}

; Function Attrs: mustprogress null_pointer_is_valid sspstrong uwtable
define void @_ZN10LabelStack8pushTextERK7QStringiS2_(ptr noundef align 8 dereferenceable_or_null(112) %0, ptr noundef align 8 dereferenceable(24) %1, i32 noundef %2, ptr noundef align 8 dereferenceable(24) %3) #0 align 2 personality ptr @__gxx_personality_v0 {
  %5 = alloca ptr, align 8
  %6 = alloca ptr, align 8
  %7 = alloca i32, align 4
  %8 = alloca ptr, align 8
  %9 = alloca %"struct.LabelStack::_StackItem", align 8
  %10 = alloca ptr, align 8
  %11 = alloca i32, align 4
  store ptr %0, ptr %5, align 8
  store ptr %1, ptr %6, align 8
  store i32 %2, ptr %7, align 4
  store ptr %3, ptr %8, align 8
  %12 = load ptr, ptr %5, align 8
  %13 = load i32, ptr %7, align 4
  call void @_ZN10LabelStack7popTextEi(ptr noundef align 8 dereferenceable_or_null(112) %12, i32 noundef %13)
  %14 = load i32, ptr %7, align 4
  %15 = getelementptr inbounds nuw %class.LabelStack, ptr %12, i32 0, i32 1
  %16 = load i32, ptr %15, align 8
  %17 = icmp eq i32 %14, %16
  br i1 %17, label %18, label %22

18:                                               ; preds = %4
  %19 = getelementptr inbounds nuw %class.LabelStack, ptr %12, i32 0, i32 5
  call void @_ZN6QTimer4stopEv(ptr noundef align 8 dereferenceable_or_null(16) %19)
  %20 = getelementptr inbounds nuw %class.LabelStack, ptr %12, i32 0, i32 4
  call void @_ZN13QElapsedTimer5startEv(ptr noundef align 8 dereferenceable_or_null(16) %20) #19
  %21 = getelementptr inbounds nuw %class.LabelStack, ptr %12, i32 0, i32 5
  call void @_ZN6QTimer5startEi(ptr noundef align 8 dereferenceable_or_null(16) %21, i32 noundef 200)
  call void @_ZN10LabelStack20toggleTemporaryFlashEb(ptr noundef align 8 dereferenceable_or_null(112) %12, i1 noundef zeroext true)
  br label %22

22:                                               ; preds = %18, %4
  call void @llvm.lifetime.start.p0(i64 56, ptr %9) #19
  call void @_ZN10LabelStack10_StackItemC2Ev(ptr noundef align 8 dereferenceable_or_null(52) %9) #19
  %23 = load ptr, ptr %6, align 8
  %24 = getelementptr inbounds nuw %"struct.LabelStack::_StackItem", ptr %9, i32 0, i32 0
  %25 = call noundef align 8 dereferenceable(24) ptr @_ZN7QStringaSERKS_(ptr noundef align 8 dereferenceable_or_null(24) %24, ptr noundef align 8 dereferenceable(24) %23) #19
  %26 = load ptr, ptr %8, align 8
  %27 = getelementptr inbounds nuw %"struct.LabelStack::_StackItem", ptr %9, i32 0, i32 1
  %28 = call noundef align 8 dereferenceable(24) ptr @_ZN7QStringaSERKS_(ptr noundef align 8 dereferenceable_or_null(24) %27, ptr noundef align 8 dereferenceable(24) %26) #19
  %29 = load i32, ptr %7, align 4
  %30 = getelementptr inbounds nuw %"struct.LabelStack::_StackItem", ptr %9, i32 0, i32 2
  store i32 %29, ptr %30, align 8
  %31 = getelementptr inbounds nuw %class.LabelStack, ptr %12, i32 0, i32 2
  invoke void @_ZN5QListIN10LabelStack10_StackItemEE7prependERKS1_(ptr noundef align 8 dereferenceable_or_null(24) %31, ptr noundef align 8 dereferenceable(52) %9)
          to label %32 unwind label %34

32:                                               ; preds = %22
  invoke void @_ZN10LabelStack9fillLabelEv(ptr noundef align 8 dereferenceable_or_null(112) %12)
          to label %33 unwind label %34

33:                                               ; preds = %32
  call void @_ZN10LabelStack10_StackItemD2Ev(ptr noundef align 8 dereferenceable_or_null(52) %9) #19
  call void @llvm.lifetime.end.p0(i64 56, ptr %9) #19
  ret void

34:                                               ; preds = %32, %22
  %35 = landingpad { ptr, i32 }
          cleanup
  %36 = extractvalue { ptr, i32 } %35, 0
  store ptr %36, ptr %10, align 8
  %37 = extractvalue { ptr, i32 } %35, 1
  store i32 %37, ptr %11, align 4
  call void @_ZN10LabelStack10_StackItemD2Ev(ptr noundef align 8 dereferenceable_or_null(52) %9) #19
  call void @llvm.lifetime.end.p0(i64 56, ptr %9) #19
  br label %38

38:                                               ; preds = %34
  %39 = load ptr, ptr %10, align 8
  %40 = load i32, ptr %11, align 4
  %41 = insertvalue { ptr, i32 } poison, ptr %39, 0
  %42 = insertvalue { ptr, i32 } %41, i32 %40, 1
  resume { ptr, i32 } %42
}