; Function Attrs: mustprogress null_pointer_is_valid sspstrong uwtable
define void @_ZN10LabelStack8pushTextERK7QStringiS2_(ptr noundef align 8 dereferenceable_or_null(112) %0, ptr noundef align 8 dereferenceable(24) %1, i32 noundef %2, ptr noundef align 8 dereferenceable(24) %3) local_unnamed_addr #0 align 2 personality ptr @__gxx_personality_v0 {
  %5 = alloca %"struct.LabelStack::_StackItem", align 8
  tail call void @_ZN10LabelStack7popTextEi(ptr noundef align 8 dereferenceable_or_null(112) %0, i32 noundef %2)
  %6 = getelementptr inbounds nuw i8, ptr %0, i64 40
  %7 = load i32, ptr %6, align 8
  %8 = icmp eq i32 %2, %7
  br i1 %8, label %9, label %12

9:                                                ; preds = %4
  %10 = getelementptr inbounds nuw i8, ptr %0, i64 96
  tail call void @_ZN6QTimer4stopEv(ptr noundef nonnull align 8 dereferenceable_or_null(16) %10)
  %11 = getelementptr inbounds nuw i8, ptr %0, i64 80
  tail call void @_ZN13QElapsedTimer5startEv(ptr noundef nonnull align 8 dereferenceable_or_null(16) %11) #17
  tail call void @_ZN6QTimer5startEi(ptr noundef nonnull align 8 dereferenceable_or_null(16) %10, i32 noundef 200)
  tail call void @_ZN10LabelStack20toggleTemporaryFlashEb(ptr noundef align 8 dereferenceable_or_null(112) %0, i1 noundef zeroext true)
  br label %12

12:                                               ; preds = %9, %4
  call void @llvm.lifetime.start.p0(i64 56, ptr nonnull %5) #17
  call void @llvm.memset.p0.i64(ptr noundef nonnull align 8 dereferenceable(52) %5, i8 0, i64 48, i1 false)
  %13 = call noundef align 8 dereferenceable(24) ptr @_ZN7QStringaSERKS_(ptr noundef nonnull align 8 dereferenceable_or_null(24) %5, ptr noundef align 8 dereferenceable(24) %1) #17
  %14 = getelementptr inbounds nuw i8, ptr %5, i64 24
  %15 = call noundef align 8 dereferenceable(24) ptr @_ZN7QStringaSERKS_(ptr noundef nonnull align 8 dereferenceable_or_null(24) %14, ptr noundef align 8 dereferenceable(24) %3) #17
  %16 = getelementptr inbounds nuw i8, ptr %5, i64 48
  store i32 %2, ptr %16, align 8
  %17 = getelementptr inbounds nuw i8, ptr %0, i64 48
  invoke void @_ZN9QtPrivate16QGenericArrayOpsIN10LabelStack10_StackItemEE7emplaceIJRKS2_EEEvxDpOT_(ptr noundef nonnull align 8 dereferenceable_or_null(24) %17, i64 noundef 0, ptr noundef nonnull align 8 dereferenceable(52) %5)
          to label %_ZN5QListIN10LabelStack10_StackItemEE7prependERKS1_.exit unwind label %27

_ZN5QListIN10LabelStack10_StackItemEE7prependERKS1_.exit: ; preds = %12
  invoke void @_ZN10LabelStack9fillLabelEv(ptr noundef align 8 dereferenceable_or_null(112) %0)
          to label %18 unwind label %27

18:                                               ; preds = %_ZN5QListIN10LabelStack10_StackItemEE7prependERKS1_.exit
  %19 = load ptr, ptr %14, align 8
  %.not.i.i.i.i = icmp eq ptr %19, null
  br i1 %.not.i.i.i.i, label %_ZN7QStringD2Ev.exit.i, label %_ZN17QArrayDataPointerIDsE5derefEv.exit.i.i.i

_ZN17QArrayDataPointerIDsE5derefEv.exit.i.i.i:    ; preds = %18
  %20 = atomicrmw sub ptr %19, i32 1 seq_cst, align 4
  %.not.i.i.i = icmp eq i32 %20, 1
  br i1 %.not.i.i.i, label %21, label %_ZN7QStringD2Ev.exit.i

21:                                               ; preds = %_ZN17QArrayDataPointerIDsE5derefEv.exit.i.i.i
  %22 = load ptr, ptr %14, align 8
  call void @_ZN10QArrayData10deallocateEPS_xx(ptr noundef %22, i64 noundef 2, i64 noundef 8) #17
  br label %_ZN7QStringD2Ev.exit.i

_ZN7QStringD2Ev.exit.i:                           ; preds = %21, %_ZN17QArrayDataPointerIDsE5derefEv.exit.i.i.i, %18
  %23 = load ptr, ptr %5, align 8
  %.not.i.i.i1.i = icmp eq ptr %23, null
  br i1 %.not.i.i.i1.i, label %_ZN10LabelStack10_StackItemD2Ev.exit, label %_ZN17QArrayDataPointerIDsE5derefEv.exit.i.i2.i

_ZN17QArrayDataPointerIDsE5derefEv.exit.i.i2.i:   ; preds = %_ZN7QStringD2Ev.exit.i
  %24 = atomicrmw sub ptr %23, i32 1 seq_cst, align 4
  %.not.i.i3.i = icmp eq i32 %24, 1
  br i1 %.not.i.i3.i, label %25, label %_ZN10LabelStack10_StackItemD2Ev.exit

25:                                               ; preds = %_ZN17QArrayDataPointerIDsE5derefEv.exit.i.i2.i
  %26 = load ptr, ptr %5, align 8
  call void @_ZN10QArrayData10deallocateEPS_xx(ptr noundef %26, i64 noundef 2, i64 noundef 8) #17
  br label %_ZN10LabelStack10_StackItemD2Ev.exit

_ZN10LabelStack10_StackItemD2Ev.exit:             ; preds = %_ZN7QStringD2Ev.exit.i, %_ZN17QArrayDataPointerIDsE5derefEv.exit.i.i2.i, %25
  call void @llvm.lifetime.end.p0(i64 56, ptr nonnull %5) #17
  ret void

27:                                               ; preds = %12, %_ZN5QListIN10LabelStack10_StackItemEE7prependERKS1_.exit
  %28 = landingpad { ptr, i32 }
          cleanup
  call void @_ZN10LabelStack10_StackItemD2Ev(ptr noundef nonnull align 8 dereferenceable_or_null(52) %5) #17
  call void @llvm.lifetime.end.p0(i64 56, ptr nonnull %5) #17
  resume { ptr, i32 } %28
}